target datalayout = "e-m:e-p270:32:32-p271:32:32-p272:64:64-i64:64-i128:128-f80:128-n8:16:32:64-S128"
target triple = "x86_64-pc-linux-gnu"

%"class.std::__cxx11::basic_string" = type { %"struct.std::__cxx11::basic_string<char>::_Alloc_hider", i64, %union.anon }
%"struct.std::__cxx11::basic_string<char>::_Alloc_hider" = type { ptr }
%union.anon = type { i64, [8 x i8] }
%"class.cvtest::BaseTest" = type { ptr, i32, %"class.std::__cxx11::basic_string", ptr }
%"class.cv::FileNode" = type { ptr, i64, i64 }

; Function Attrs: mustprogress nounwind uwtable
define linkonce_odr hidden noundef nonnull align 8 dereferenceable(32) ptr @_ZNK6cvtest8BaseTest8get_nameB5cxx11Ev(ptr noundef nonnull align 8 dereferenceable(56) %0) #7 comdat align 2 {
  %2 = alloca ptr, align 8
  store ptr %0, ptr %2, align 8, !tbaa !34
  %3 = load ptr, ptr %2, align 8
  %4 = getelementptr inbounds nuw %"class.cvtest::BaseTest", ptr %3, i32 0, i32 2
  ret ptr %4
}

; Function Attrs: mustprogress uwtable
define hidden void @_ZN6cvtest8BaseTest10find_paramERKN2cv11FileStorageEPKc(ptr dead_on_unwind noalias writable sret(%"class.cv::FileNode") align 8 %0, ptr noundef nonnull align 8 dereferenceable(56) %1, ptr noundef nonnull align 8 dereferenceable(64) %2, ptr noundef %3) #6 align 2 {
  %5 = alloca ptr, align 8
  %6 = alloca ptr, align 8
  %7 = alloca ptr, align 8
  %8 = alloca ptr, align 8
  %9 = alloca %"class.cv::FileNode", align 8
  store ptr %0, ptr %5, align 8
  store ptr %1, ptr %6, align 8, !tbaa !34
  store ptr %2, ptr %7, align 8, !tbaa !43
  store ptr %3, ptr %8, align 8, !tbaa !25
  %10 = load ptr, ptr %6, align 8
  call void @llvm.lifetime.start.p0(i64 24, ptr %9) #3
  %11 = load ptr, ptr %7, align 8, !tbaa !43
  %12 = call noundef nonnull align 8 dereferenceable(32) ptr @_ZNK6cvtest8BaseTest8get_nameB5cxx11Ev(ptr noundef nonnull align 8 dereferenceable(56) %10)
  call void @_ZNK2cv11FileStorageixERKNSt7__cxx1112basic_stringIcSt11char_traitsIcESaIcEEE(ptr dead_on_unwind writable sret(%"class.cv::FileNode") align 8 %9, ptr noundef nonnull align 8 dereferenceable(64) %11, ptr noundef nonnull align 8 dereferenceable(32) %12)
  %13 = load ptr, ptr %8, align 8, !tbaa !25
  call void @_ZNK2cv8FileNodeixEPKc(ptr dead_on_unwind writable sret(%"class.cv::FileNode") align 8 %0, ptr noundef nonnull align 8 dereferenceable(24) %9, ptr noundef %13)
  call void @llvm.lifetime.end.p0(i64 24, ptr %9) #3
  ret void
}