; Function Attrs: mustprogress uwtable
define hidden void @_ZN6cvtest8BaseTest10find_paramERKN2cv11FileStorageEPKc(ptr dead_on_unwind noalias writable sret(%"class.cv::FileNode") align 8 %0, ptr noundef nonnull align 8 dereferenceable(56) %1, ptr noundef nonnull align 8 dereferenceable(64) %2, ptr noundef %3) local_unnamed_addr #4 align 2 {
  %5 = alloca %"class.cv::FileNode", align 8
  call void @llvm.lifetime.start.p0(i64 24, ptr nonnull %5) #41
  %6 = getelementptr inbounds nuw i8, ptr %1, i64 16
  call void @_ZNK2cv11FileStorageixERKNSt7__cxx1112basic_stringIcSt11char_traitsIcESaIcEEE(ptr dead_on_unwind nonnull writable sret(%"class.cv::FileNode") align 8 %5, ptr noundef nonnull align 8 dereferenceable(64) %2, ptr noundef nonnull align 8 dereferenceable(32) %6)
  call void @_ZNK2cv8FileNodeixEPKc(ptr dead_on_unwind writable sret(%"class.cv::FileNode") align 8 %0, ptr noundef nonnull align 8 dereferenceable(24) %5, ptr noundef %3)
  call void @llvm.lifetime.end.p0(i64 24, ptr nonnull %5) #41
  ret void
}